; Function Attrs: mustprogress uwtable
define void @_ZN6icu_778Calendar20setTemporalMonthCodeEPKcR10UErrorCode(ptr noundef nonnull align 8 dereferenceable(192) %0, ptr noundef readonly captures(none) %1, ptr noundef nonnull align 4 captures(none) dereferenceable(4) %2) unnamed_addr #1 align 2 {
  %4 = alloca i32, align 4
  %5 = load i32, ptr %2, align 4, !tbaa !13
  %6 = icmp slt i32 %5, 1
  br i1 %6, label %7, label %84

7:                                                ; preds = %3
  %8 = tail call i64 @strlen(ptr noundef nonnull dereferenceable(1) %1) #28
  %9 = and i64 %8, 4294967295
  %10 = icmp eq i64 %9, 3
  br i1 %10, label %11, label %.critedge

11:                                               ; preds = %7
  %12 = load i8, ptr %1, align 1, !tbaa !47
  %13 = icmp eq i8 %12, 77
  br i1 %13, label %.preheader, label %.critedge

.preheader:                                       ; preds = %11, %83
  %indvars.iv = phi i64 [ %indvars.iv.next, %83 ], [ 0, %11 ]
  %14 = getelementptr inbounds nuw [13 x ptr], ptr @_ZN6icu_77L19gTemporalMonthCodesE, i64 0, i64 %indvars.iv
  %15 = load ptr, ptr %14, align 8, !tbaa !58
  %16 = tail call i32 @strcmp(ptr noundef nonnull dereferenceable(1) %1, ptr noundef nonnull dereferenceable(1) %15) #28
  %17 = icmp eq i32 %16, 0
  br i1 %17, label %18, label %83

18:                                               ; preds = %.preheader
  %19 = trunc nuw nsw i64 %indvars.iv to i32
  %20 = getelementptr inbounds nuw i8, ptr %0, i64 152
  %21 = load i8, ptr %20, align 8
  %22 = and i8 %21, 8
  %.not.i = icmp eq i8 %22, 0
  br i1 %.not.i, label %27, label %23

23:                                               ; preds = %18
  call void @llvm.lifetime.start.p0(i64 4, ptr nonnull %4) #25
  store i32 0, ptr %4, align 4, !tbaa !13
  %24 = load ptr, ptr %0, align 8, !tbaa !15
  %25 = getelementptr inbounds nuw i8, ptr %24, i64 256
  %26 = load ptr, ptr %25, align 8
  call void %26(ptr noundef nonnull align 8 dereferenceable(192) %0, ptr noundef nonnull align 4 dereferenceable(4) %4)
  call void @llvm.lifetime.end.p0(i64 4, ptr nonnull %4) #25
  br label %27

27:                                               ; preds = %23, %18
  %28 = getelementptr inbounds nuw i8, ptr %0, i64 16
  store i32 %19, ptr %28, align 8, !tbaa !12
  %29 = getelementptr inbounds nuw i8, ptr %0, i64 128
  %30 = load i8, ptr %29, align 8, !tbaa !40
  %31 = icmp eq i8 %30, 127
  br i1 %31, label %32, label %51

32:                                               ; preds = %27
  store i8 1, ptr %29, align 8, !tbaa !40
  %33 = getelementptr inbounds nuw i8, ptr %0, i64 104
  br label %.preheader.i.i

.preheader.i.i:                                   ; preds = %44, %32
  %.01119.i.i = phi i32 [ 0, %32 ], [ %48, %44 ]
  %34 = load i8, ptr %29, align 8, !tbaa !40
  br label %35

35:                                               ; preds = %35, %.preheader.i.i
  %indvars.iv.i.i = phi i64 [ 0, %.preheader.i.i ], [ %indvars.iv.next.i.i, %35 ]
  %.01217.i.i = phi i32 [ 127, %.preheader.i.i ], [ %.1.i.i, %35 ]
  %.01316.i.i = phi i32 [ -1, %.preheader.i.i ], [ %.114.i.i, %35 ]
  %36 = getelementptr inbounds nuw [24 x i8], ptr %33, i64 0, i64 %indvars.iv.i.i
  %37 = load i8, ptr %36, align 1, !tbaa !47
  %38 = sext i8 %37 to i32
  %39 = icmp sgt i8 %37, %34
  %40 = icmp sgt i32 %.01217.i.i, %38
  %or.cond.i.i = select i1 %39, i1 %40, i1 false
  %41 = trunc nuw nsw i64 %indvars.iv.i.i to i32
  %.114.i.i = select i1 %or.cond.i.i, i32 %41, i32 %.01316.i.i
  %.1.i.i = select i1 %or.cond.i.i, i32 %38, i32 %.01217.i.i
  %indvars.iv.next.i.i = add nuw nsw i64 %indvars.iv.i.i, 1
  %exitcond.not.i.i = icmp eq i64 %indvars.iv.next.i.i, 24
  br i1 %exitcond.not.i.i, label %42, label %35, !llvm.loop !68

42:                                               ; preds = %35
  %43 = icmp sgt i32 %.114.i.i, -1
  br i1 %43, label %44, label %_ZN6icu_778Calendar16recalculateStampEv.exit.i

44:                                               ; preds = %42
  %45 = add i8 %34, 1
  store i8 %45, ptr %29, align 8, !tbaa !40
  %46 = zext nneg i32 %.114.i.i to i64
  %47 = getelementptr inbounds nuw [24 x i8], ptr %33, i64 0, i64 %46
  store i8 %45, ptr %47, align 1, !tbaa !47
  %48 = add nuw nsw i32 %.01119.i.i, 1
  %exitcond21.not.i.i = icmp eq i32 %48, 24
  br i1 %exitcond21.not.i.i, label %._crit_edge.i.i, label %.preheader.i.i, !llvm.loop !69

._crit_edge.i.i:                                  ; preds = %44
  %.pre.i.i = load i8, ptr %29, align 8, !tbaa !40
  br label %_ZN6icu_778Calendar16recalculateStampEv.exit.i

_ZN6icu_778Calendar16recalculateStampEv.exit.i:   ; preds = %42, %._crit_edge.i.i
  %49 = phi i8 [ %.pre.i.i, %._crit_edge.i.i ], [ %34, %42 ]
  %50 = add i8 %49, 1
  br label %51

51:                                               ; preds = %_ZN6icu_778Calendar16recalculateStampEv.exit.i, %27
  %52 = phi i8 [ %50, %_ZN6icu_778Calendar16recalculateStampEv.exit.i ], [ %30, %27 ]
  %53 = add i8 %52, 1
  %54 = getelementptr inbounds nuw i8, ptr %0, i64 104
  %55 = getelementptr inbounds nuw i8, ptr %0, i64 106
  store i8 %52, ptr %55, align 2, !tbaa !47
  %56 = load i8, ptr %20, align 8
  %57 = and i8 %56, -12
  store i8 %57, ptr %20, align 8
  %58 = getelementptr inbounds nuw i8, ptr %0, i64 96
  store i32 0, ptr %58, align 8, !tbaa !12
  %59 = icmp eq i8 %53, 127
  br i1 %59, label %60, label %_ZN6icu_778Calendar3setE19UCalendarDateFieldsi.exit29

60:                                               ; preds = %51
  store i8 1, ptr %29, align 8, !tbaa !40
  br label %.preheader.i.i15

.preheader.i.i15:                                 ; preds = %71, %60
  %.01119.i.i16 = phi i32 [ 0, %60 ], [ %75, %71 ]
  %61 = load i8, ptr %29, align 8, !tbaa !40
  br label %62

62:                                               ; preds = %62, %.preheader.i.i15
  %indvars.iv.i.i17 = phi i64 [ 0, %.preheader.i.i15 ], [ %indvars.iv.next.i.i23, %62 ]
  %.01217.i.i18 = phi i32 [ 127, %.preheader.i.i15 ], [ %.1.i.i22, %62 ]
  %.01316.i.i19 = phi i32 [ -1, %.preheader.i.i15 ], [ %.114.i.i21, %62 ]
  %63 = getelementptr inbounds nuw [24 x i8], ptr %54, i64 0, i64 %indvars.iv.i.i17
  %64 = load i8, ptr %63, align 1, !tbaa !47
  %65 = sext i8 %64 to i32
  %66 = icmp sgt i8 %64, %61
  %67 = icmp sgt i32 %.01217.i.i18, %65
  %or.cond.i.i20 = select i1 %66, i1 %67, i1 false
  %68 = trunc nuw nsw i64 %indvars.iv.i.i17 to i32
  %.114.i.i21 = select i1 %or.cond.i.i20, i32 %68, i32 %.01316.i.i19
  %.1.i.i22 = select i1 %or.cond.i.i20, i32 %65, i32 %.01217.i.i18
  %indvars.iv.next.i.i23 = add nuw nsw i64 %indvars.iv.i.i17, 1
  %exitcond.not.i.i24 = icmp eq i64 %indvars.iv.next.i.i23, 24
  br i1 %exitcond.not.i.i24, label %69, label %62, !llvm.loop !68

69:                                               ; preds = %62
  %70 = icmp sgt i32 %.114.i.i21, -1
  br i1 %70, label %71, label %_ZN6icu_778Calendar16recalculateStampEv.exit.i25

71:                                               ; preds = %69
  %72 = add i8 %61, 1
  store i8 %72, ptr %29, align 8, !tbaa !40
  %73 = zext nneg i32 %.114.i.i21 to i64
  %74 = getelementptr inbounds nuw [24 x i8], ptr %54, i64 0, i64 %73
  store i8 %72, ptr %74, align 1, !tbaa !47
  %75 = add nuw nsw i32 %.01119.i.i16, 1
  %exitcond21.not.i.i26 = icmp eq i32 %75, 24
  br i1 %exitcond21.not.i.i26, label %._crit_edge.i.i27, label %.preheader.i.i15, !llvm.loop !69

._crit_edge.i.i27:                                ; preds = %71
  %.pre.i.i28 = load i8, ptr %29, align 8, !tbaa !40
  br label %_ZN6icu_778Calendar16recalculateStampEv.exit.i25

_ZN6icu_778Calendar16recalculateStampEv.exit.i25: ; preds = %69, %._crit_edge.i.i27
  %76 = phi i8 [ %.pre.i.i28, %._crit_edge.i.i27 ], [ %61, %69 ]
  %77 = add i8 %76, 1
  %.pre = load i8, ptr %20, align 8
  %78 = and i8 %.pre, -12
  br label %_ZN6icu_778Calendar3setE19UCalendarDateFieldsi.exit29

_ZN6icu_778Calendar3setE19UCalendarDateFieldsi.exit29: ; preds = %51, %_ZN6icu_778Calendar16recalculateStampEv.exit.i25
  %79 = phi i8 [ %78, %_ZN6icu_778Calendar16recalculateStampEv.exit.i25 ], [ %57, %51 ]
  %80 = phi i8 [ %77, %_ZN6icu_778Calendar16recalculateStampEv.exit.i25 ], [ %53, %51 ]
  %81 = add i8 %80, 1
  store i8 %81, ptr %29, align 8, !tbaa !40
  %82 = getelementptr inbounds nuw i8, ptr %0, i64 126
  store i8 %80, ptr %82, align 2, !tbaa !47
  store i8 %79, ptr %20, align 8
  br label %84

83:                                               ; preds = %.preheader
  %indvars.iv.next = add nuw nsw i64 %indvars.iv, 1
  %.not13 = icmp eq i64 %indvars.iv.next, 12
  br i1 %.not13, label %.critedge, label %.preheader, !llvm.loop !80

.critedge:                                        ; preds = %83, %11, %7
  store i32 1, ptr %2, align 4, !tbaa !13
  br label %84

84:                                               ; preds = %_ZN6icu_778Calendar3setE19UCalendarDateFieldsi.exit29, %.critedge, %3
  ret void
}